; Function Attrs: nounwind uwtable
define hidden void @ma_atomic_vec3f_set(ptr noundef %0, <2 x float> %1, float %2) local_unnamed_addr #42 {
  %4 = getelementptr inbounds nuw i8, ptr %0, i64 12
  %5 = atomicrmw volatile xchg ptr %4, i32 1 acquire, align 4
  %6 = icmp eq i32 %5, 0
  br i1 %6, label %ma_spinlock_lock.exit, label %.preheader.i

.loopexit.i:                                      ; preds = %.lr.ph.i, %.preheader.i
  %7 = atomicrmw volatile xchg ptr %4, i32 1 acquire, align 4
  %8 = icmp eq i32 %7, 0
  br i1 %8, label %ma_spinlock_lock.exit, label %.preheader.i

.preheader.i:                                     ; preds = %3, %.loopexit.i
  %9 = load atomic volatile i32, ptr %4 monotonic, align 4
  %10 = icmp eq i32 %9, 1
  br i1 %10, label %.lr.ph.i, label %.loopexit.i

.lr.ph.i:                                         ; preds = %.preheader.i, %.lr.ph.i
  tail call void asm sideeffect "pause", "~{dirflag},~{fpsr},~{flags}"() #72, !srcloc !3
  %11 = load atomic volatile i32, ptr %4 monotonic, align 4
  %12 = icmp eq i32 %11, 1
  br i1 %12, label %.lr.ph.i, label %.loopexit.i

ma_spinlock_lock.exit:                            ; preds = %.loopexit.i, %3
  store <2 x float> %1, ptr %0, align 4
  %.sroa.24.0..sroa_idx = getelementptr inbounds nuw i8, ptr %0, i64 8
  store float %2, ptr %.sroa.24.0..sroa_idx, align 4
  store atomic volatile i32 0, ptr %4 release, align 4
  ret void
}